; Function Attrs: mustprogress nounwind uwtable
define dso_local void @_ZN9Stockfish10ThreadPool15start_searchingEv(ptr nocapture noundef nonnull readonly align 8 dereferenceable(40) %0) local_unnamed_addr #3 align 2 {
  %2 = getelementptr inbounds i8, ptr %0, i64 16
  %3 = load ptr, ptr %2, align 8
  %4 = getelementptr inbounds i8, ptr %0, i64 24
  %5 = load ptr, ptr %4, align 8
  %.not89 = icmp eq ptr %3, %5
  br i1 %.not89, label %._crit_edge, label %.lr.ph

.lr.ph:                                           ; preds = %1, %16
  %.sroa.05.010 = phi ptr [ %17, %16 ], [ %3, %1 ]
  %6 = load ptr, ptr %.sroa.05.010, align 8
  %7 = load ptr, ptr %2, align 8
  %8 = load ptr, ptr %7, align 8
  %.not = icmp eq ptr %6, %8
  br i1 %.not, label %16, label %9

9:                                                ; preds = %.lr.ph
  %10 = getelementptr inbounds i8, ptr %6, i64 16
  %11 = tail call noundef i32 @pthread_mutex_lock(ptr noundef nonnull %10) #14
  %.not.i.i = icmp eq i32 %11, 0
  br i1 %.not.i.i, label %_ZN9Stockfish6Thread15start_searchingEv.exit, label %12

12:                                               ; preds = %9
  tail call void @_ZSt20__throw_system_errori(i32 noundef %11) #15
  unreachable

_ZN9Stockfish6Thread15start_searchingEv.exit:     ; preds = %9
  %13 = getelementptr inbounds i8, ptr %6, i64 121
  store i8 1, ptr %13, align 1
  %14 = tail call noundef i32 @pthread_mutex_unlock(ptr noundef nonnull %10) #14
  %15 = getelementptr inbounds i8, ptr %6, i64 56
  tail call void @_ZNSt18condition_variable10notify_oneEv(ptr noundef nonnull align 8 dereferenceable(48) %15) #14
  br label %16

16:                                               ; preds = %.lr.ph, %_ZN9Stockfish6Thread15start_searchingEv.exit
  %17 = getelementptr inbounds i8, ptr %.sroa.05.010, i64 8
  %.not8 = icmp eq ptr %17, %5
  br i1 %.not8, label %._crit_edge, label %.lr.ph

._crit_edge:                                      ; preds = %16, %1
  ret void
}